target datalayout = "e-m:e-p270:32:32-p271:32:32-p272:64:64-i64:64-i128:128-f80:128-n8:16:32:64-S128"
target triple = "x86_64-pc-linux-gnu"

%struct.fd_data = type { ptr, ptr, i64, ptr, i64 }
%struct.fd_buf = type { ptr, i64, i64, i32, i8, i32, i32, i32, i32, i32, i32, i64, ptr, i64, ptr }

@.str.12 = private unnamed_addr constant [43 x i8] c"Number of file descriptors polled: %u fds\0A\00", align 1

; Function Attrs: nounwind uwtable
define dso_local void @fds_cleanup(ptr noundef %0) #0 {
  %2 = alloca ptr, align 8
  %3 = alloca ptr, align 8
  %4 = alloca i32, align 4
  %5 = alloca i32, align 4
  store ptr %0, ptr %2, align 8
  store i32 0, ptr %4, align 4
  store i32 0, ptr %5, align 4
  br label %6

6:                                                ; preds = %63, %1
  %7 = load i32, ptr %4, align 4
  %8 = zext i32 %7 to i64
  %9 = load ptr, ptr %2, align 8
  %10 = getelementptr inbounds %struct.fd_data, ptr %9, i32 0, i32 2
  %11 = load i64, ptr %10, align 8
  %12 = icmp ult i64 %8, %11
  br i1 %12, label %13, label %66

13:                                               ; preds = %6
  %14 = load ptr, ptr %2, align 8
  %15 = getelementptr inbounds %struct.fd_data, ptr %14, i32 0, i32 1
  %16 = load ptr, ptr %15, align 8
  %17 = load i32, ptr %4, align 4
  %18 = zext i32 %17 to i64
  %19 = getelementptr inbounds %struct.fd_buf, ptr %16, i64 %18
  %20 = getelementptr inbounds %struct.fd_buf, ptr %19, i32 0, i32 3
  %21 = load i32, ptr %20, align 8
  %22 = icmp slt i32 %21, 0
  br i1 %22, label %23, label %43

23:                                               ; preds = %13
  %24 = load ptr, ptr %2, align 8
  %25 = getelementptr inbounds %struct.fd_data, ptr %24, i32 0, i32 1
  %26 = load ptr, ptr %25, align 8
  %27 = load i32, ptr %4, align 4
  %28 = zext i32 %27 to i64
  %29 = getelementptr inbounds %struct.fd_buf, ptr %26, i64 %28
  %30 = getelementptr inbounds %struct.fd_buf, ptr %29, i32 0, i32 0
  %31 = load ptr, ptr %30, align 8
  %32 = icmp ne ptr %31, null
  br i1 %32, label %33, label %42

33:                                               ; preds = %23
  %34 = load ptr, ptr %2, align 8
  %35 = getelementptr inbounds %struct.fd_data, ptr %34, i32 0, i32 1
  %36 = load ptr, ptr %35, align 8
  %37 = load i32, ptr %4, align 4
  %38 = zext i32 %37 to i64
  %39 = getelementptr inbounds %struct.fd_buf, ptr %36, i64 %38
  %40 = getelementptr inbounds %struct.fd_buf, ptr %39, i32 0, i32 0
  %41 = load ptr, ptr %40, align 8
  call void @free(ptr noundef %41) #12
  br label %42

42:                                               ; preds = %33, %23
  br label %63

43:                                               ; preds = %13
  %44 = load i32, ptr %4, align 4
  %45 = load i32, ptr %5, align 4
  %46 = icmp ne i32 %44, %45
  br i1 %46, label %47, label %60

47:                                               ; preds = %43
  %48 = load ptr, ptr %2, align 8
  %49 = getelementptr inbounds %struct.fd_data, ptr %48, i32 0, i32 1
  %50 = load ptr, ptr %49, align 8
  %51 = load i32, ptr %5, align 4
  %52 = zext i32 %51 to i64
  %53 = getelementptr inbounds %struct.fd_buf, ptr %50, i64 %52
  %54 = load ptr, ptr %2, align 8
  %55 = getelementptr inbounds %struct.fd_data, ptr %54, i32 0, i32 1
  %56 = load ptr, ptr %55, align 8
  %57 = load i32, ptr %4, align 4
  %58 = zext i32 %57 to i64
  %59 = getelementptr inbounds %struct.fd_buf, ptr %56, i64 %58
  call void @llvm.memcpy.p0.p0.i64(ptr align 8 %53, ptr align 8 %59, i64 88, i1 false)
  br label %60

60:                                               ; preds = %47, %43
  %61 = load i32, ptr %5, align 4
  %62 = add i32 %61, 1
  store i32 %62, ptr %5, align 4
  br label %63

63:                                               ; preds = %60, %42
  %64 = load i32, ptr %4, align 4
  %65 = add i32 %64, 1
  store i32 %65, ptr %4, align 4
  br label %6

66:                                               ; preds = %6
  %67 = load i32, ptr %5, align 4
  %68 = zext i32 %67 to i64
  %69 = load ptr, ptr %2, align 8
  %70 = getelementptr inbounds %struct.fd_data, ptr %69, i32 0, i32 2
  %71 = load i64, ptr %70, align 8
  %72 = icmp eq i64 %68, %71
  br i1 %72, label %73, label %74

73:                                               ; preds = %66
  br label %124

74:                                               ; preds = %66
  %75 = load i32, ptr %5, align 4
  store i32 %75, ptr %4, align 4
  br label %76

76:                                               ; preds = %91, %74
  %77 = load i32, ptr %4, align 4
  %78 = zext i32 %77 to i64
  %79 = load ptr, ptr %2, align 8
  %80 = getelementptr inbounds %struct.fd_data, ptr %79, i32 0, i32 2
  %81 = load i64, ptr %80, align 8
  %82 = icmp ult i64 %78, %81
  br i1 %82, label %83, label %94

83:                                               ; preds = %76
  %84 = load ptr, ptr %2, align 8
  %85 = getelementptr inbounds %struct.fd_data, ptr %84, i32 0, i32 1
  %86 = load ptr, ptr %85, align 8
  %87 = load i32, ptr %4, align 4
  %88 = zext i32 %87 to i64
  %89 = getelementptr inbounds %struct.fd_buf, ptr %86, i64 %88
  %90 = getelementptr inbounds %struct.fd_buf, ptr %89, i32 0, i32 3
  store i32 -1, ptr %90, align 8
  br label %91

91:                                               ; preds = %83
  %92 = load i32, ptr %4, align 4
  %93 = add i32 %92, 1
  store i32 %93, ptr %4, align 4
  br label %76

94:                                               ; preds = %76
  %95 = load i32, ptr %5, align 4
  %96 = zext i32 %95 to i64
  %97 = load ptr, ptr %2, align 8
  %98 = getelementptr inbounds %struct.fd_data, ptr %97, i32 0, i32 2
  store i64 %96, ptr %98, align 8
  %99 = load ptr, ptr %2, align 8
  %100 = getelementptr inbounds %struct.fd_data, ptr %99, i32 0, i32 2
  %101 = load i64, ptr %100, align 8
  %102 = trunc i64 %101 to i32
  %103 = call i32 (i32, ptr, ...) @logg(i32 noundef 3, ptr noundef @.str.12, i32 noundef %102)
  %104 = load ptr, ptr %2, align 8
  %105 = getelementptr inbounds %struct.fd_data, ptr %104, i32 0, i32 1
  %106 = load ptr, ptr %105, align 8
  %107 = load i32, ptr %5, align 4
  %108 = zext i32 %107 to i64
  %109 = mul i64 %108, 88
  %110 = call ptr @realloc(ptr noundef %106, i64 noundef %109) #19
  store ptr %110, ptr %3, align 8
  %111 = load i32, ptr %5, align 4
  %112 = icmp ne i32 %111, 0
  br i1 %112, label %116, label %113

113:                                              ; preds = %94
  %114 = load ptr, ptr %2, align 8
  %115 = getelementptr inbounds %struct.fd_data, ptr %114, i32 0, i32 1
  store ptr null, ptr %115, align 8
  br label %124

116:                                              ; preds = %94
  %117 = load ptr, ptr %3, align 8
  %118 = icmp ne ptr %117, null
  br i1 %118, label %119, label %123

119:                                              ; preds = %116
  %120 = load ptr, ptr %3, align 8
  %121 = load ptr, ptr %2, align 8
  %122 = getelementptr inbounds %struct.fd_data, ptr %121, i32 0, i32 1
  store ptr %120, ptr %122, align 8
  br label %123

123:                                              ; preds = %119, %116
  br label %124

124:                                              ; preds = %123, %113, %73
  ret void
}