; Function Attrs: nounwind uwtable
define dso_local void @fds_cleanup(ptr nocapture noundef %0) local_unnamed_addr #0 {
  %2 = getelementptr inbounds i8, ptr %0, i64 16
  %3 = load i64, ptr %2, align 8
  %.not51 = icmp eq i64 %3, 0
  br i1 %.not51, label %._crit_edge, label %.lr.ph

.lr.ph:                                           ; preds = %1
  %4 = getelementptr inbounds i8, ptr %0, i64 8
  br label %5

5:                                                ; preds = %.lr.ph, %21
  %6 = phi i64 [ 0, %.lr.ph ], [ %23, %21 ]
  %.046 = phi i32 [ 0, %.lr.ph ], [ %.1, %21 ]
  %.03345 = phi i32 [ 0, %.lr.ph ], [ %22, %21 ]
  %7 = load ptr, ptr %4, align 8
  %8 = getelementptr inbounds %struct.fd_buf, ptr %7, i64 %6
  %9 = getelementptr inbounds i8, ptr %8, i64 24
  %10 = load i32, ptr %9, align 8
  %11 = icmp slt i32 %10, 0
  br i1 %11, label %12, label %15

12:                                               ; preds = %5
  %13 = load ptr, ptr %8, align 8
  %.not43 = icmp eq ptr %13, null
  br i1 %.not43, label %21, label %14

14:                                               ; preds = %12
  tail call void @free(ptr noundef nonnull %13) #21
  br label %21

15:                                               ; preds = %5
  %.not42 = icmp eq i32 %.03345, %.046
  br i1 %.not42, label %19, label %16

16:                                               ; preds = %15
  %17 = zext i32 %.046 to i64
  %18 = getelementptr inbounds %struct.fd_buf, ptr %7, i64 %17
  tail call void @llvm.memcpy.p0.p0.i64(ptr noundef nonnull align 8 dereferenceable(88) %18, ptr noundef nonnull align 8 dereferenceable(88) %8, i64 88, i1 false)
  br label %19

19:                                               ; preds = %16, %15
  %20 = add i32 %.046, 1
  br label %21

21:                                               ; preds = %12, %14, %19
  %.1 = phi i32 [ %.046, %14 ], [ %.046, %12 ], [ %20, %19 ]
  %22 = add i32 %.03345, 1
  %23 = zext i32 %22 to i64
  %24 = load i64, ptr %2, align 8
  %25 = icmp ugt i64 %24, %23
  br i1 %25, label %5, label %._crit_edge

._crit_edge:                                      ; preds = %21, %1
  %26 = phi i64 [ 0, %1 ], [ %24, %21 ]
  %.0.lcssa = phi i32 [ 0, %1 ], [ %.1, %21 ]
  %27 = zext i32 %.0.lcssa to i64
  %28 = icmp eq i64 %26, %27
  br i1 %28, label %45, label %.preheader

.preheader:                                       ; preds = %._crit_edge
  %29 = icmp ugt i64 %26, %27
  br i1 %29, label %.lr.ph49, label %._crit_edge50

.lr.ph49:                                         ; preds = %.preheader
  %30 = getelementptr inbounds i8, ptr %0, i64 8
  br label %31

31:                                               ; preds = %.lr.ph49, %31
  %32 = phi i64 [ %27, %.lr.ph49 ], [ %36, %31 ]
  %.13448 = phi i32 [ %.0.lcssa, %.lr.ph49 ], [ %35, %31 ]
  %33 = load ptr, ptr %30, align 8
  %34 = getelementptr inbounds %struct.fd_buf, ptr %33, i64 %32, i32 3
  store i32 -1, ptr %34, align 8
  %35 = add i32 %.13448, 1
  %36 = zext i32 %35 to i64
  %37 = load i64, ptr %2, align 8
  %38 = icmp ugt i64 %37, %36
  br i1 %38, label %31, label %._crit_edge50

._crit_edge50:                                    ; preds = %31, %.preheader
  store i64 %27, ptr %2, align 8
  %39 = tail call i32 (i32, ptr, ...) @logg(i32 noundef 3, ptr noundef nonnull @.str.12, i32 noundef %.0.lcssa) #21
  %40 = getelementptr inbounds i8, ptr %0, i64 8
  %41 = load ptr, ptr %40, align 8
  %42 = mul nuw nsw i64 %27, 88
  %43 = tail call ptr @realloc(ptr noundef %41, i64 noundef %42) #28
  %.not = icmp eq i32 %.0.lcssa, 0
  br i1 %.not, label %.sink.split, label %44

44:                                               ; preds = %._crit_edge50
  %.not41 = icmp eq ptr %43, null
  br i1 %.not41, label %45, label %.sink.split

.sink.split:                                      ; preds = %44, %._crit_edge50
  %.sink = phi ptr [ null, %._crit_edge50 ], [ %43, %44 ]
  store ptr %.sink, ptr %40, align 8
  br label %45

45:                                               ; preds = %.sink.split, %44, %._crit_edge
  ret void
}